target datalayout = "e-m:e-p270:32:32-p271:32:32-p272:64:64-i64:64-i128:128-f80:128-n8:16:32:64-S128"
target triple = "x86_64-pc-linux-gnu"

%struct.MedianContext = type { ptr, i32, i32, i32, float, [4 x i32], [4 x i32], i32, i32, i32, ptr, ptr, i32, i32, i32, i32, ptr, ptr, ptr, ptr }
%struct.AVFilterLink = type { ptr, ptr, ptr, ptr, i32, i32, i32, i32, %struct.AVRational, i32, i32, i32, %struct.AVChannelLayout, %struct.AVRational, ptr, i32, %struct.AVFilterFormatsConfig, %struct.AVFilterFormatsConfig }
%struct.AVChannelLayout = type { i32, i32, %union.anon.1, ptr }
%union.anon.1 = type { i64 }
%struct.AVRational = type { i32, i32 }
%struct.AVFilterFormatsConfig = type { ptr, ptr, ptr, ptr, ptr }

@.str.3 = private unnamed_addr constant [66 x i8] c"The %d plane width %d must be not less than %d, clipping radius.\0A\00", align 1
@.str.4 = private unnamed_addr constant [68 x i8] c"The %d plane height %d must be not less than %d, clipping radiusV.\0A\00", align 1

; Function Attrs: nounwind uwtable
define internal void @check_params(ptr noundef %0, ptr noundef %1) #1 {
  %3 = alloca ptr, align 8
  %4 = alloca ptr, align 8
  %5 = alloca i32, align 4
  store ptr %0, ptr %3, align 8, !tbaa !22
  store ptr %1, ptr %4, align 8, !tbaa !37
  call void @llvm.lifetime.start.p0(i64 4, ptr %5) #8
  store i32 0, ptr %5, align 4, !tbaa !24
  br label %6

6:                                                ; preds = %101, %2
  %7 = load i32, ptr %5, align 4, !tbaa !24
  %8 = load ptr, ptr %3, align 8, !tbaa !22
  %9 = getelementptr inbounds nuw %struct.MedianContext, ptr %8, i32 0, i32 8
  %10 = load i32, ptr %9, align 4, !tbaa !65
  %11 = icmp slt i32 %7, %10
  br i1 %11, label %13, label %12

12:                                               ; preds = %6
  call void @llvm.lifetime.end.p0(i64 4, ptr %5) #8
  br label %104

13:                                               ; preds = %6
  %14 = load ptr, ptr %3, align 8, !tbaa !22
  %15 = getelementptr inbounds nuw %struct.MedianContext, ptr %14, i32 0, i32 1
  %16 = load i32, ptr %15, align 8, !tbaa !79
  %17 = load i32, ptr %5, align 4, !tbaa !24
  %18 = shl i32 1, %17
  %19 = and i32 %16, %18
  %20 = icmp ne i32 %19, 0
  br i1 %20, label %22, label %21

21:                                               ; preds = %13
  br label %101

22:                                               ; preds = %13
  %23 = load ptr, ptr %3, align 8, !tbaa !22
  %24 = getelementptr inbounds nuw %struct.MedianContext, ptr %23, i32 0, i32 5
  %25 = load i32, ptr %5, align 4, !tbaa !24
  %26 = sext i32 %25 to i64
  %27 = getelementptr inbounds [4 x i32], ptr %24, i64 0, i64 %26
  %28 = load i32, ptr %27, align 4, !tbaa !24
  %29 = load ptr, ptr %3, align 8, !tbaa !22
  %30 = getelementptr inbounds nuw %struct.MedianContext, ptr %29, i32 0, i32 2
  %31 = load i32, ptr %30, align 4, !tbaa !35
  %32 = mul nsw i32 %31, 2
  %33 = add nsw i32 %32, 1
  %34 = icmp slt i32 %28, %33
  br i1 %34, label %35, label %61

35:                                               ; preds = %22
  %36 = load ptr, ptr %4, align 8, !tbaa !37
  %37 = getelementptr inbounds nuw %struct.AVFilterLink, ptr %36, i32 0, i32 2
  %38 = load ptr, ptr %37, align 8, !tbaa !41
  %39 = load i32, ptr %5, align 4, !tbaa !24
  %40 = load ptr, ptr %3, align 8, !tbaa !22
  %41 = getelementptr inbounds nuw %struct.MedianContext, ptr %40, i32 0, i32 5
  %42 = load i32, ptr %5, align 4, !tbaa !24
  %43 = sext i32 %42 to i64
  %44 = getelementptr inbounds [4 x i32], ptr %41, i64 0, i64 %43
  %45 = load i32, ptr %44, align 4, !tbaa !24
  %46 = load ptr, ptr %3, align 8, !tbaa !22
  %47 = getelementptr inbounds nuw %struct.MedianContext, ptr %46, i32 0, i32 2
  %48 = load i32, ptr %47, align 4, !tbaa !35
  %49 = mul nsw i32 %48, 2
  %50 = add nsw i32 %49, 1
  call void (ptr, i32, ptr, ...) @av_log(ptr noundef %38, i32 noundef 24, ptr noundef @.str.3, i32 noundef %39, i32 noundef %45, i32 noundef %50)
  %51 = load ptr, ptr %3, align 8, !tbaa !22
  %52 = getelementptr inbounds nuw %struct.MedianContext, ptr %51, i32 0, i32 5
  %53 = load i32, ptr %5, align 4, !tbaa !24
  %54 = sext i32 %53 to i64
  %55 = getelementptr inbounds [4 x i32], ptr %52, i64 0, i64 %54
  %56 = load i32, ptr %55, align 4, !tbaa !24
  %57 = sub nsw i32 %56, 1
  %58 = sdiv i32 %57, 2
  %59 = load ptr, ptr %3, align 8, !tbaa !22
  %60 = getelementptr inbounds nuw %struct.MedianContext, ptr %59, i32 0, i32 2
  store i32 %58, ptr %60, align 4, !tbaa !35
  br label %61

61:                                               ; preds = %35, %22
  %62 = load ptr, ptr %3, align 8, !tbaa !22
  %63 = getelementptr inbounds nuw %struct.MedianContext, ptr %62, i32 0, i32 6
  %64 = load i32, ptr %5, align 4, !tbaa !24
  %65 = sext i32 %64 to i64
  %66 = getelementptr inbounds [4 x i32], ptr %63, i64 0, i64 %65
  %67 = load i32, ptr %66, align 4, !tbaa !24
  %68 = load ptr, ptr %3, align 8, !tbaa !22
  %69 = getelementptr inbounds nuw %struct.MedianContext, ptr %68, i32 0, i32 3
  %70 = load i32, ptr %69, align 8, !tbaa !34
  %71 = mul nsw i32 %70, 2
  %72 = add nsw i32 %71, 1
  %73 = icmp slt i32 %67, %72
  br i1 %73, label %74, label %100

74:                                               ; preds = %61
  %75 = load ptr, ptr %4, align 8, !tbaa !37
  %76 = getelementptr inbounds nuw %struct.AVFilterLink, ptr %75, i32 0, i32 2
  %77 = load ptr, ptr %76, align 8, !tbaa !41
  %78 = load i32, ptr %5, align 4, !tbaa !24
  %79 = load ptr, ptr %3, align 8, !tbaa !22
  %80 = getelementptr inbounds nuw %struct.MedianContext, ptr %79, i32 0, i32 6
  %81 = load i32, ptr %5, align 4, !tbaa !24
  %82 = sext i32 %81 to i64
  %83 = getelementptr inbounds [4 x i32], ptr %80, i64 0, i64 %82
  %84 = load i32, ptr %83, align 4, !tbaa !24
  %85 = load ptr, ptr %3, align 8, !tbaa !22
  %86 = getelementptr inbounds nuw %struct.MedianContext, ptr %85, i32 0, i32 3
  %87 = load i32, ptr %86, align 8, !tbaa !34
  %88 = mul nsw i32 %87, 2
  %89 = add nsw i32 %88, 1
  call void (ptr, i32, ptr, ...) @av_log(ptr noundef %77, i32 noundef 24, ptr noundef @.str.4, i32 noundef %78, i32 noundef %84, i32 noundef %89)
  %90 = load ptr, ptr %3, align 8, !tbaa !22
  %91 = getelementptr inbounds nuw %struct.MedianContext, ptr %90, i32 0, i32 6
  %92 = load i32, ptr %5, align 4, !tbaa !24
  %93 = sext i32 %92 to i64
  %94 = getelementptr inbounds [4 x i32], ptr %91, i64 0, i64 %93
  %95 = load i32, ptr %94, align 4, !tbaa !24
  %96 = sub nsw i32 %95, 1
  %97 = sdiv i32 %96, 2
  %98 = load ptr, ptr %3, align 8, !tbaa !22
  %99 = getelementptr inbounds nuw %struct.MedianContext, ptr %98, i32 0, i32 3
  store i32 %97, ptr %99, align 8, !tbaa !34
  br label %100

100:                                              ; preds = %74, %61
  br label %101

101:                                              ; preds = %100, %21
  %102 = load i32, ptr %5, align 4, !tbaa !24
  %103 = add nsw i32 %102, 1
  store i32 %103, ptr %5, align 4, !tbaa !24
  br label %6, !llvm.loop !81

104:                                              ; preds = %12
  %105 = load ptr, ptr %3, align 8, !tbaa !22
  %106 = getelementptr inbounds nuw %struct.MedianContext, ptr %105, i32 0, i32 2
  %107 = load i32, ptr %106, align 4, !tbaa !35
  %108 = mul nsw i32 2, %107
  %109 = load ptr, ptr %3, align 8, !tbaa !22
  %110 = getelementptr inbounds nuw %struct.MedianContext, ptr %109, i32 0, i32 3
  %111 = load i32, ptr %110, align 8, !tbaa !34
  %112 = mul nsw i32 %108, %111
  %113 = load ptr, ptr %3, align 8, !tbaa !22
  %114 = getelementptr inbounds nuw %struct.MedianContext, ptr %113, i32 0, i32 3
  %115 = load i32, ptr %114, align 8, !tbaa !34
  %116 = add nsw i32 %112, %115
  %117 = load ptr, ptr %3, align 8, !tbaa !22
  %118 = getelementptr inbounds nuw %struct.MedianContext, ptr %117, i32 0, i32 2
  %119 = load i32, ptr %118, align 4, !tbaa !35
  %120 = add nsw i32 %116, %119
  %121 = sitofp i32 %120 to float
  %122 = fmul nsz float %121, 2.000000e+00
  %123 = load ptr, ptr %3, align 8, !tbaa !22
  %124 = getelementptr inbounds nuw %struct.MedianContext, ptr %123, i32 0, i32 4
  %125 = load float, ptr %124, align 4, !tbaa !82
  %126 = fmul nsz float %122, %125
  %127 = fptosi float %126 to i32
  %128 = load ptr, ptr %3, align 8, !tbaa !22
  %129 = getelementptr inbounds nuw %struct.MedianContext, ptr %128, i32 0, i32 15
  store i32 %127, ptr %129, align 4, !tbaa !83
  ret void
}