; Function Attrs: nounwind uwtable
define internal fastcc void @check_params(ptr noundef captures(none) %0, ptr noundef readonly captures(none) %1) unnamed_addr #1 {
  %3 = getelementptr inbounds nuw i8, ptr %0, i64 60
  %4 = load i32, ptr %3, align 4, !tbaa !59
  %5 = icmp sgt i32 %4, 0
  br i1 %5, label %.lr.ph, label %._crit_edge

.lr.ph:                                           ; preds = %2
  %6 = getelementptr inbounds nuw i8, ptr %0, i64 8
  %7 = getelementptr inbounds nuw i8, ptr %0, i64 24
  %8 = getelementptr inbounds nuw i8, ptr %0, i64 12
  %9 = getelementptr inbounds nuw i8, ptr %1, i64 16
  %10 = getelementptr inbounds nuw i8, ptr %0, i64 40
  %11 = getelementptr inbounds nuw i8, ptr %0, i64 16
  br label %27

._crit_edge:                                      ; preds = %54, %2
  %12 = getelementptr inbounds nuw i8, ptr %0, i64 12
  %13 = load i32, ptr %12, align 4, !tbaa !29
  %14 = shl nsw i32 %13, 1
  %15 = getelementptr inbounds nuw i8, ptr %0, i64 16
  %16 = load i32, ptr %15, align 8, !tbaa !28
  %17 = or disjoint i32 %14, 1
  %18 = mul i32 %17, %16
  %19 = add nsw i32 %18, %13
  %20 = sitofp i32 %19 to float
  %21 = fmul nsz float %20, 2.000000e+00
  %22 = getelementptr inbounds nuw i8, ptr %0, i64 20
  %23 = load float, ptr %22, align 4, !tbaa !73
  %24 = fmul nsz float %23, %21
  %25 = fptosi float %24 to i32
  %26 = getelementptr inbounds nuw i8, ptr %0, i64 100
  store i32 %25, ptr %26, align 4, !tbaa !74
  ret void

27:                                               ; preds = %.lr.ph, %54
  %indvars.iv = phi i64 [ 0, %.lr.ph ], [ %indvars.iv.next, %54 ]
  %28 = load i32, ptr %6, align 8, !tbaa !70
  %29 = trunc nuw nsw i64 %indvars.iv to i32
  %30 = shl nuw i32 1, %29
  %31 = and i32 %28, %30
  %.not = icmp eq i32 %31, 0
  br i1 %.not, label %54, label %32

32:                                               ; preds = %27
  %33 = getelementptr inbounds nuw [4 x i32], ptr %7, i64 0, i64 %indvars.iv
  %34 = load i32, ptr %33, align 4, !tbaa !57
  %35 = load i32, ptr %8, align 4, !tbaa !29
  %36 = shl nsw i32 %35, 1
  %.not36 = icmp sgt i32 %34, %36
  br i1 %.not36, label %43, label %37

37:                                               ; preds = %32
  %38 = or disjoint i32 %36, 1
  %39 = load ptr, ptr %9, align 8, !tbaa !35
  tail call void (ptr, i32, ptr, ...) @av_log(ptr noundef %39, i32 noundef 24, ptr noundef nonnull @.str.3, i32 noundef %29, i32 noundef %34, i32 noundef %38) #9
  %40 = load i32, ptr %33, align 4, !tbaa !57
  %41 = add nsw i32 %40, -1
  %42 = sdiv i32 %41, 2
  store i32 %42, ptr %8, align 4, !tbaa !29
  br label %43

43:                                               ; preds = %37, %32
  %44 = getelementptr inbounds nuw [4 x i32], ptr %10, i64 0, i64 %indvars.iv
  %45 = load i32, ptr %44, align 4, !tbaa !57
  %46 = load i32, ptr %11, align 8, !tbaa !28
  %47 = shl nsw i32 %46, 1
  %.not37 = icmp sgt i32 %45, %47
  br i1 %.not37, label %54, label %48

48:                                               ; preds = %43
  %49 = or disjoint i32 %47, 1
  %50 = load ptr, ptr %9, align 8, !tbaa !35
  tail call void (ptr, i32, ptr, ...) @av_log(ptr noundef %50, i32 noundef 24, ptr noundef nonnull @.str.4, i32 noundef %29, i32 noundef %45, i32 noundef %49) #9
  %51 = load i32, ptr %44, align 4, !tbaa !57
  %52 = add nsw i32 %51, -1
  %53 = sdiv i32 %52, 2
  store i32 %53, ptr %11, align 8, !tbaa !28
  br label %54

54:                                               ; preds = %43, %48, %27
  %indvars.iv.next = add nuw nsw i64 %indvars.iv, 1
  %55 = load i32, ptr %3, align 4, !tbaa !59
  %56 = sext i32 %55 to i64
  %57 = icmp slt i64 %indvars.iv.next, %56
  br i1 %57, label %27, label %._crit_edge, !llvm.loop !75
}